target datalayout = "e-m:e-p270:32:32-p271:32:32-p272:64:64-i64:64-i128:128-f80:128-n8:16:32:64-S128"
target triple = "x86_64-pc-linux-gnu"

%struct.blas_arg_t = type { ptr, ptr, ptr, ptr, ptr, ptr, i64, i64, i64, i64, i64, i64, i64, ptr, i64, ptr, i32 }

; Function Attrs: nounwind uwtable
define internal void @legacy_exec(ptr noundef %0, i32 noundef %1, ptr noundef %2, ptr noundef %3) #0 {
  %5 = alloca ptr, align 8
  %6 = alloca i32, align 4
  %7 = alloca ptr, align 8
  %8 = alloca ptr, align 8
  %9 = alloca ptr, align 8
  %10 = alloca ptr, align 8
  %11 = alloca ptr, align 8
  %12 = alloca ptr, align 8
  store ptr %0, ptr %5, align 8, !tbaa !9
  store i32 %1, ptr %6, align 4, !tbaa !3
  store ptr %2, ptr %7, align 8, !tbaa !9
  store ptr %3, ptr %8, align 8, !tbaa !9
  %13 = load i32, ptr %6, align 4, !tbaa !3
  %14 = and i32 %13, 4096
  %15 = icmp ne i32 %14, 0
  br i1 %15, label %99, label %16

16:                                               ; preds = %4
  %17 = load i32, ptr %6, align 4, !tbaa !3
  %18 = and i32 %17, 15
  %19 = icmp eq i32 %18, 3
  br i1 %19, label %20, label %56

20:                                               ; preds = %16
  call void @llvm.lifetime.start.p0(i64 8, ptr %9) #8
  %21 = load ptr, ptr %5, align 8, !tbaa !9
  store ptr %21, ptr %9, align 8, !tbaa !9
  %22 = load ptr, ptr %9, align 8, !tbaa !9
  %23 = load ptr, ptr %7, align 8, !tbaa !9
  %24 = getelementptr inbounds nuw %struct.blas_arg_t, ptr %23, i32 0, i32 6
  %25 = load i64, ptr %24, align 8, !tbaa !57
  %26 = load ptr, ptr %7, align 8, !tbaa !9
  %27 = getelementptr inbounds nuw %struct.blas_arg_t, ptr %26, i32 0, i32 7
  %28 = load i64, ptr %27, align 8, !tbaa !59
  %29 = load ptr, ptr %7, align 8, !tbaa !9
  %30 = getelementptr inbounds nuw %struct.blas_arg_t, ptr %29, i32 0, i32 8
  %31 = load i64, ptr %30, align 8, !tbaa !60
  %32 = load ptr, ptr %7, align 8, !tbaa !9
  %33 = getelementptr inbounds nuw %struct.blas_arg_t, ptr %32, i32 0, i32 4
  %34 = load ptr, ptr %33, align 8, !tbaa !61
  %35 = getelementptr inbounds double, ptr %34, i64 0
  %36 = load double, ptr %35, align 8, !tbaa !62
  %37 = load ptr, ptr %7, align 8, !tbaa !9
  %38 = getelementptr inbounds nuw %struct.blas_arg_t, ptr %37, i32 0, i32 0
  %39 = load ptr, ptr %38, align 8, !tbaa !64
  %40 = load ptr, ptr %7, align 8, !tbaa !9
  %41 = getelementptr inbounds nuw %struct.blas_arg_t, ptr %40, i32 0, i32 9
  %42 = load i64, ptr %41, align 8, !tbaa !65
  %43 = load ptr, ptr %7, align 8, !tbaa !9
  %44 = getelementptr inbounds nuw %struct.blas_arg_t, ptr %43, i32 0, i32 1
  %45 = load ptr, ptr %44, align 8, !tbaa !66
  %46 = load ptr, ptr %7, align 8, !tbaa !9
  %47 = getelementptr inbounds nuw %struct.blas_arg_t, ptr %46, i32 0, i32 10
  %48 = load i64, ptr %47, align 8, !tbaa !67
  %49 = load ptr, ptr %7, align 8, !tbaa !9
  %50 = getelementptr inbounds nuw %struct.blas_arg_t, ptr %49, i32 0, i32 2
  %51 = load ptr, ptr %50, align 8, !tbaa !68
  %52 = load ptr, ptr %7, align 8, !tbaa !9
  %53 = getelementptr inbounds nuw %struct.blas_arg_t, ptr %52, i32 0, i32 11
  %54 = load i64, ptr %53, align 8, !tbaa !69
  %55 = load ptr, ptr %8, align 8, !tbaa !9
  call void %22(i64 noundef %25, i64 noundef %28, i64 noundef %31, double noundef %36, ptr noundef %39, i64 noundef %42, ptr noundef %45, i64 noundef %48, ptr noundef %51, i64 noundef %54, ptr noundef %55)
  call void @llvm.lifetime.end.p0(i64 8, ptr %9) #8
  br label %98

56:                                               ; preds = %16
  %57 = load i32, ptr %6, align 4, !tbaa !3
  %58 = and i32 %57, 15
  %59 = icmp eq i32 %58, 2
  br i1 %59, label %60, label %96

60:                                               ; preds = %56
  call void @llvm.lifetime.start.p0(i64 8, ptr %10) #8
  %61 = load ptr, ptr %5, align 8, !tbaa !9
  store ptr %61, ptr %10, align 8, !tbaa !9
  %62 = load ptr, ptr %10, align 8, !tbaa !9
  %63 = load ptr, ptr %7, align 8, !tbaa !9
  %64 = getelementptr inbounds nuw %struct.blas_arg_t, ptr %63, i32 0, i32 6
  %65 = load i64, ptr %64, align 8, !tbaa !57
  %66 = load ptr, ptr %7, align 8, !tbaa !9
  %67 = getelementptr inbounds nuw %struct.blas_arg_t, ptr %66, i32 0, i32 7
  %68 = load i64, ptr %67, align 8, !tbaa !59
  %69 = load ptr, ptr %7, align 8, !tbaa !9
  %70 = getelementptr inbounds nuw %struct.blas_arg_t, ptr %69, i32 0, i32 8
  %71 = load i64, ptr %70, align 8, !tbaa !60
  %72 = load ptr, ptr %7, align 8, !tbaa !9
  %73 = getelementptr inbounds nuw %struct.blas_arg_t, ptr %72, i32 0, i32 4
  %74 = load ptr, ptr %73, align 8, !tbaa !61
  %75 = getelementptr inbounds float, ptr %74, i64 0
  %76 = load float, ptr %75, align 4, !tbaa !70
  %77 = load ptr, ptr %7, align 8, !tbaa !9
  %78 = getelementptr inbounds nuw %struct.blas_arg_t, ptr %77, i32 0, i32 0
  %79 = load ptr, ptr %78, align 8, !tbaa !64
  %80 = load ptr, ptr %7, align 8, !tbaa !9
  %81 = getelementptr inbounds nuw %struct.blas_arg_t, ptr %80, i32 0, i32 9
  %82 = load i64, ptr %81, align 8, !tbaa !65
  %83 = load ptr, ptr %7, align 8, !tbaa !9
  %84 = getelementptr inbounds nuw %struct.blas_arg_t, ptr %83, i32 0, i32 1
  %85 = load ptr, ptr %84, align 8, !tbaa !66
  %86 = load ptr, ptr %7, align 8, !tbaa !9
  %87 = getelementptr inbounds nuw %struct.blas_arg_t, ptr %86, i32 0, i32 10
  %88 = load i64, ptr %87, align 8, !tbaa !67
  %89 = load ptr, ptr %7, align 8, !tbaa !9
  %90 = getelementptr inbounds nuw %struct.blas_arg_t, ptr %89, i32 0, i32 2
  %91 = load ptr, ptr %90, align 8, !tbaa !68
  %92 = load ptr, ptr %7, align 8, !tbaa !9
  %93 = getelementptr inbounds nuw %struct.blas_arg_t, ptr %92, i32 0, i32 11
  %94 = load i64, ptr %93, align 8, !tbaa !69
  %95 = load ptr, ptr %8, align 8, !tbaa !9
  call void %62(i64 noundef %65, i64 noundef %68, i64 noundef %71, float noundef %76, ptr noundef %79, i64 noundef %82, ptr noundef %85, i64 noundef %88, ptr noundef %91, i64 noundef %94, ptr noundef %95)
  call void @llvm.lifetime.end.p0(i64 8, ptr %10) #8
  br label %97

96:                                               ; preds = %56
  br label %97

97:                                               ; preds = %96, %60
  br label %98

98:                                               ; preds = %97, %20
  br label %192

99:                                               ; preds = %4
  %100 = load i32, ptr %6, align 4, !tbaa !3
  %101 = and i32 %100, 15
  %102 = icmp eq i32 %101, 3
  br i1 %102, label %103, label %144

103:                                              ; preds = %99
  call void @llvm.lifetime.start.p0(i64 8, ptr %11) #8
  %104 = load ptr, ptr %5, align 8, !tbaa !9
  store ptr %104, ptr %11, align 8, !tbaa !9
  %105 = load ptr, ptr %11, align 8, !tbaa !9
  %106 = load ptr, ptr %7, align 8, !tbaa !9
  %107 = getelementptr inbounds nuw %struct.blas_arg_t, ptr %106, i32 0, i32 6
  %108 = load i64, ptr %107, align 8, !tbaa !57
  %109 = load ptr, ptr %7, align 8, !tbaa !9
  %110 = getelementptr inbounds nuw %struct.blas_arg_t, ptr %109, i32 0, i32 7
  %111 = load i64, ptr %110, align 8, !tbaa !59
  %112 = load ptr, ptr %7, align 8, !tbaa !9
  %113 = getelementptr inbounds nuw %struct.blas_arg_t, ptr %112, i32 0, i32 8
  %114 = load i64, ptr %113, align 8, !tbaa !60
  %115 = load ptr, ptr %7, align 8, !tbaa !9
  %116 = getelementptr inbounds nuw %struct.blas_arg_t, ptr %115, i32 0, i32 4
  %117 = load ptr, ptr %116, align 8, !tbaa !61
  %118 = getelementptr inbounds double, ptr %117, i64 0
  %119 = load double, ptr %118, align 8, !tbaa !62
  %120 = load ptr, ptr %7, align 8, !tbaa !9
  %121 = getelementptr inbounds nuw %struct.blas_arg_t, ptr %120, i32 0, i32 4
  %122 = load ptr, ptr %121, align 8, !tbaa !61
  %123 = getelementptr inbounds double, ptr %122, i64 1
  %124 = load double, ptr %123, align 8, !tbaa !62
  %125 = load ptr, ptr %7, align 8, !tbaa !9
  %126 = getelementptr inbounds nuw %struct.blas_arg_t, ptr %125, i32 0, i32 0
  %127 = load ptr, ptr %126, align 8, !tbaa !64
  %128 = load ptr, ptr %7, align 8, !tbaa !9
  %129 = getelementptr inbounds nuw %struct.blas_arg_t, ptr %128, i32 0, i32 9
  %130 = load i64, ptr %129, align 8, !tbaa !65
  %131 = load ptr, ptr %7, align 8, !tbaa !9
  %132 = getelementptr inbounds nuw %struct.blas_arg_t, ptr %131, i32 0, i32 1
  %133 = load ptr, ptr %132, align 8, !tbaa !66
  %134 = load ptr, ptr %7, align 8, !tbaa !9
  %135 = getelementptr inbounds nuw %struct.blas_arg_t, ptr %134, i32 0, i32 10
  %136 = load i64, ptr %135, align 8, !tbaa !67
  %137 = load ptr, ptr %7, align 8, !tbaa !9
  %138 = getelementptr inbounds nuw %struct.blas_arg_t, ptr %137, i32 0, i32 2
  %139 = load ptr, ptr %138, align 8, !tbaa !68
  %140 = load ptr, ptr %7, align 8, !tbaa !9
  %141 = getelementptr inbounds nuw %struct.blas_arg_t, ptr %140, i32 0, i32 11
  %142 = load i64, ptr %141, align 8, !tbaa !69
  %143 = load ptr, ptr %8, align 8, !tbaa !9
  call void %105(i64 noundef %108, i64 noundef %111, i64 noundef %114, double noundef %119, double noundef %124, ptr noundef %127, i64 noundef %130, ptr noundef %133, i64 noundef %136, ptr noundef %139, i64 noundef %142, ptr noundef %143)
  call void @llvm.lifetime.end.p0(i64 8, ptr %11) #8
  br label %191

144:                                              ; preds = %99
  %145 = load i32, ptr %6, align 4, !tbaa !3
  %146 = and i32 %145, 15
  %147 = icmp eq i32 %146, 2
  br i1 %147, label %148, label %189

148:                                              ; preds = %144
  call void @llvm.lifetime.start.p0(i64 8, ptr %12) #8
  %149 = load ptr, ptr %5, align 8, !tbaa !9
  store ptr %149, ptr %12, align 8, !tbaa !9
  %150 = load ptr, ptr %12, align 8, !tbaa !9
  %151 = load ptr, ptr %7, align 8, !tbaa !9
  %152 = getelementptr inbounds nuw %struct.blas_arg_t, ptr %151, i32 0, i32 6
  %153 = load i64, ptr %152, align 8, !tbaa !57
  %154 = load ptr, ptr %7, align 8, !tbaa !9
  %155 = getelementptr inbounds nuw %struct.blas_arg_t, ptr %154, i32 0, i32 7
  %156 = load i64, ptr %155, align 8, !tbaa !59
  %157 = load ptr, ptr %7, align 8, !tbaa !9
  %158 = getelementptr inbounds nuw %struct.blas_arg_t, ptr %157, i32 0, i32 8
  %159 = load i64, ptr %158, align 8, !tbaa !60
  %160 = load ptr, ptr %7, align 8, !tbaa !9
  %161 = getelementptr inbounds nuw %struct.blas_arg_t, ptr %160, i32 0, i32 4
  %162 = load ptr, ptr %161, align 8, !tbaa !61
  %163 = getelementptr inbounds float, ptr %162, i64 0
  %164 = load float, ptr %163, align 4, !tbaa !70
  %165 = load ptr, ptr %7, align 8, !tbaa !9
  %166 = getelementptr inbounds nuw %struct.blas_arg_t, ptr %165, i32 0, i32 4
  %167 = load ptr, ptr %166, align 8, !tbaa !61
  %168 = getelementptr inbounds float, ptr %167, i64 1
  %169 = load float, ptr %168, align 4, !tbaa !70
  %170 = load ptr, ptr %7, align 8, !tbaa !9
  %171 = getelementptr inbounds nuw %struct.blas_arg_t, ptr %170, i32 0, i32 0
  %172 = load ptr, ptr %171, align 8, !tbaa !64
  %173 = load ptr, ptr %7, align 8, !tbaa !9
  %174 = getelementptr inbounds nuw %struct.blas_arg_t, ptr %173, i32 0, i32 9
  %175 = load i64, ptr %174, align 8, !tbaa !65
  %176 = load ptr, ptr %7, align 8, !tbaa !9
  %177 = getelementptr inbounds nuw %struct.blas_arg_t, ptr %176, i32 0, i32 1
  %178 = load ptr, ptr %177, align 8, !tbaa !66
  %179 = load ptr, ptr %7, align 8, !tbaa !9
  %180 = getelementptr inbounds nuw %struct.blas_arg_t, ptr %179, i32 0, i32 10
  %181 = load i64, ptr %180, align 8, !tbaa !67
  %182 = load ptr, ptr %7, align 8, !tbaa !9
  %183 = getelementptr inbounds nuw %struct.blas_arg_t, ptr %182, i32 0, i32 2
  %184 = load ptr, ptr %183, align 8, !tbaa !68
  %185 = load ptr, ptr %7, align 8, !tbaa !9
  %186 = getelementptr inbounds nuw %struct.blas_arg_t, ptr %185, i32 0, i32 11
  %187 = load i64, ptr %186, align 8, !tbaa !69
  %188 = load ptr, ptr %8, align 8, !tbaa !9
  call void %150(i64 noundef %153, i64 noundef %156, i64 noundef %159, float noundef %164, float noundef %169, ptr noundef %172, i64 noundef %175, ptr noundef %178, i64 noundef %181, ptr noundef %184, i64 noundef %187, ptr noundef %188)
  call void @llvm.lifetime.end.p0(i64 8, ptr %12) #8
  br label %190

189:                                              ; preds = %144
  br label %190

190:                                              ; preds = %189, %148
  br label %191

191:                                              ; preds = %190, %103
  br label %192

192:                                              ; preds = %191, %98
  ret void
}