; Function Attrs: nounwind uwtable
define internal fastcc void @legacy_exec(ptr noundef readonly captures(none) %0, i32 noundef %1, ptr noundef readonly captures(none) %2, ptr noundef %3) unnamed_addr #0 {
  %5 = and i32 %1, 4096
  %.not = icmp eq i32 %5, 0
  %6 = and i32 %1, 15
  br i1 %.not, label %7, label %50

7:                                                ; preds = %4
  switch i32 %6, label %97 [
    i32 3, label %8
    i32 2, label %29
  ]

8:                                                ; preds = %7
  %9 = getelementptr inbounds nuw i8, ptr %2, i64 48
  %10 = load i64, ptr %9, align 8, !tbaa !56
  %11 = getelementptr inbounds nuw i8, ptr %2, i64 56
  %12 = load i64, ptr %11, align 8, !tbaa !58
  %13 = getelementptr inbounds nuw i8, ptr %2, i64 64
  %14 = load i64, ptr %13, align 8, !tbaa !59
  %15 = getelementptr inbounds nuw i8, ptr %2, i64 32
  %16 = load ptr, ptr %15, align 8, !tbaa !60
  %17 = load double, ptr %16, align 8, !tbaa !61
  %18 = load ptr, ptr %2, align 8, !tbaa !63
  %19 = getelementptr inbounds nuw i8, ptr %2, i64 72
  %20 = load i64, ptr %19, align 8, !tbaa !64
  %21 = getelementptr inbounds nuw i8, ptr %2, i64 8
  %22 = load ptr, ptr %21, align 8, !tbaa !65
  %23 = getelementptr inbounds nuw i8, ptr %2, i64 80
  %24 = load i64, ptr %23, align 8, !tbaa !66
  %25 = getelementptr inbounds nuw i8, ptr %2, i64 16
  %26 = load ptr, ptr %25, align 8, !tbaa !67
  %27 = getelementptr inbounds nuw i8, ptr %2, i64 88
  %28 = load i64, ptr %27, align 8, !tbaa !68
  tail call void %0(i64 noundef %10, i64 noundef %12, i64 noundef %14, double noundef %17, ptr noundef %18, i64 noundef %20, ptr noundef %22, i64 noundef %24, ptr noundef %26, i64 noundef %28, ptr noundef %3) #10
  br label %97

29:                                               ; preds = %7
  %30 = getelementptr inbounds nuw i8, ptr %2, i64 48
  %31 = load i64, ptr %30, align 8, !tbaa !56
  %32 = getelementptr inbounds nuw i8, ptr %2, i64 56
  %33 = load i64, ptr %32, align 8, !tbaa !58
  %34 = getelementptr inbounds nuw i8, ptr %2, i64 64
  %35 = load i64, ptr %34, align 8, !tbaa !59
  %36 = getelementptr inbounds nuw i8, ptr %2, i64 32
  %37 = load ptr, ptr %36, align 8, !tbaa !60
  %38 = load float, ptr %37, align 4, !tbaa !69
  %39 = load ptr, ptr %2, align 8, !tbaa !63
  %40 = getelementptr inbounds nuw i8, ptr %2, i64 72
  %41 = load i64, ptr %40, align 8, !tbaa !64
  %42 = getelementptr inbounds nuw i8, ptr %2, i64 8
  %43 = load ptr, ptr %42, align 8, !tbaa !65
  %44 = getelementptr inbounds nuw i8, ptr %2, i64 80
  %45 = load i64, ptr %44, align 8, !tbaa !66
  %46 = getelementptr inbounds nuw i8, ptr %2, i64 16
  %47 = load ptr, ptr %46, align 8, !tbaa !67
  %48 = getelementptr inbounds nuw i8, ptr %2, i64 88
  %49 = load i64, ptr %48, align 8, !tbaa !68
  tail call void %0(i64 noundef %31, i64 noundef %33, i64 noundef %35, float noundef %38, ptr noundef %39, i64 noundef %41, ptr noundef %43, i64 noundef %45, ptr noundef %47, i64 noundef %49, ptr noundef %3) #10
  br label %97

50:                                               ; preds = %4
  switch i32 %6, label %97 [
    i32 3, label %51
    i32 2, label %74
  ]

51:                                               ; preds = %50
  %52 = getelementptr inbounds nuw i8, ptr %2, i64 48
  %53 = load i64, ptr %52, align 8, !tbaa !56
  %54 = getelementptr inbounds nuw i8, ptr %2, i64 56
  %55 = load i64, ptr %54, align 8, !tbaa !58
  %56 = getelementptr inbounds nuw i8, ptr %2, i64 64
  %57 = load i64, ptr %56, align 8, !tbaa !59
  %58 = getelementptr inbounds nuw i8, ptr %2, i64 32
  %59 = load ptr, ptr %58, align 8, !tbaa !60
  %60 = load double, ptr %59, align 8, !tbaa !61
  %61 = getelementptr inbounds nuw i8, ptr %59, i64 8
  %62 = load double, ptr %61, align 8, !tbaa !61
  %63 = load ptr, ptr %2, align 8, !tbaa !63
  %64 = getelementptr inbounds nuw i8, ptr %2, i64 72
  %65 = load i64, ptr %64, align 8, !tbaa !64
  %66 = getelementptr inbounds nuw i8, ptr %2, i64 8
  %67 = load ptr, ptr %66, align 8, !tbaa !65
  %68 = getelementptr inbounds nuw i8, ptr %2, i64 80
  %69 = load i64, ptr %68, align 8, !tbaa !66
  %70 = getelementptr inbounds nuw i8, ptr %2, i64 16
  %71 = load ptr, ptr %70, align 8, !tbaa !67
  %72 = getelementptr inbounds nuw i8, ptr %2, i64 88
  %73 = load i64, ptr %72, align 8, !tbaa !68
  tail call void %0(i64 noundef %53, i64 noundef %55, i64 noundef %57, double noundef %60, double noundef %62, ptr noundef %63, i64 noundef %65, ptr noundef %67, i64 noundef %69, ptr noundef %71, i64 noundef %73, ptr noundef %3) #10
  br label %97

74:                                               ; preds = %50
  %75 = getelementptr inbounds nuw i8, ptr %2, i64 48
  %76 = load i64, ptr %75, align 8, !tbaa !56
  %77 = getelementptr inbounds nuw i8, ptr %2, i64 56
  %78 = load i64, ptr %77, align 8, !tbaa !58
  %79 = getelementptr inbounds nuw i8, ptr %2, i64 64
  %80 = load i64, ptr %79, align 8, !tbaa !59
  %81 = getelementptr inbounds nuw i8, ptr %2, i64 32
  %82 = load ptr, ptr %81, align 8, !tbaa !60
  %83 = load float, ptr %82, align 4, !tbaa !69
  %84 = getelementptr inbounds nuw i8, ptr %82, i64 4
  %85 = load float, ptr %84, align 4, !tbaa !69
  %86 = load ptr, ptr %2, align 8, !tbaa !63
  %87 = getelementptr inbounds nuw i8, ptr %2, i64 72
  %88 = load i64, ptr %87, align 8, !tbaa !64
  %89 = getelementptr inbounds nuw i8, ptr %2, i64 8
  %90 = load ptr, ptr %89, align 8, !tbaa !65
  %91 = getelementptr inbounds nuw i8, ptr %2, i64 80
  %92 = load i64, ptr %91, align 8, !tbaa !66
  %93 = getelementptr inbounds nuw i8, ptr %2, i64 16
  %94 = load ptr, ptr %93, align 8, !tbaa !67
  %95 = getelementptr inbounds nuw i8, ptr %2, i64 88
  %96 = load i64, ptr %95, align 8, !tbaa !68
  tail call void %0(i64 noundef %76, i64 noundef %78, i64 noundef %80, float noundef %83, float noundef %85, ptr noundef %86, i64 noundef %88, ptr noundef %90, i64 noundef %92, ptr noundef %94, i64 noundef %96, ptr noundef %3) #10
  br label %97

97:                                               ; preds = %50, %7, %51, %74, %8, %29
  ret void
}